; ModuleID = 'bench/clamav/original/regfree.c.ll'
source_filename = "bench/clamav/original/regfree.c.ll"
target datalayout = "e-m:e-p270:32:32-p271:32:32-p272:64:64-i64:64-i128:128-f80:128-n8:16:32:64-S128"
target triple = "x86_64-pc-linux-gnu"

; Function Attrs: mustprogress nounwind willreturn uwtable
define void @cli_regfree(ptr nocapture noundef %0) local_unnamed_addr #0 {
  %2 = load i32, ptr %0, align 8
  %.not = icmp eq i32 %2, 62053
  br i1 %.not, label %3, label %18

3:                                                ; preds = %1
  %4 = getelementptr inbounds i8, ptr %0, i64 24
  %5 = load ptr, ptr %4, align 8
  %6 = icmp eq ptr %5, null
  br i1 %6, label %18, label %7

7:                                                ; preds = %3
  %8 = getelementptr inbounds i8, ptr %5, i64 24
  %9 = load i32, ptr %8, align 8
  %.not11 = icmp eq i32 %9, 53829
  br i1 %.not11, label %10, label %18

10:                                               ; preds = %7
  store i32 0, ptr %0, align 8
  store i32 0, ptr %8, align 8
  %11 = load ptr, ptr %5, align 8
  tail call void @free(ptr noundef %11) #2
  %12 = getelementptr inbounds i8, ptr %5, i64 8
  %13 = load ptr, ptr %12, align 8
  tail call void @free(ptr noundef %13) #2
  %14 = getelementptr inbounds i8, ptr %5, i64 16
  %15 = load ptr, ptr %14, align 8
  tail call void @free(ptr noundef %15) #2
  %16 = getelementptr inbounds i8, ptr %5, i64 80
  %17 = load ptr, ptr %16, align 8
  tail call void @free(ptr noundef %17) #2
  tail call void @free(ptr noundef nonnull %5) #2
  br label %18

18:                                               ; preds = %3, %7, %1, %10
  ret void
}

; Function Attrs: mustprogress nounwind willreturn allockind("free") memory(argmem: readwrite, inaccessiblemem: readwrite)
declare void @free(ptr allocptr nocapture noundef) local_unnamed_addr #1


!llvm.module.flags = !{!0, !1, !2, !3}

!0 = !{i32 1, !"wchar_size", i32 4}
!1 = !{i32 8, !"PIC Level", i32 2}
!2 = !{i32 7, !"uwtable", i32 2}
!3 = !{i32 7, !"frame-pointer", i32 2}
